(dp0
I0
S'n09835506'
p1
sI1
S'n02669723'
p2
sI2
S'n04540053'
p3
sI3
S'n03379051'
p4
sI4
S'n04023962'
p5
sI5
S'n04118538'
p6
sI6
S'n04118538'
p7
sI7
S'n04254680'
p8
sI8
S'n04254680'
p9
sI9
S'n04254680'
p10
sI10
S'n04118538'
p11
sI11
S'n04118538'
p12
sI12
S'n02835271'
p13
sI13
S'n04118538'
p14
sI14
S'n04254680'
p15
sI15
S'n04118538'
p16
sI16
S'n04118538'
p17
sI17
S'n04254680'
p18
sI18
S'n04254680'
p19
sI19
S'n04254680'
p20
sI20
S'n04254680'
p21
sI21
S'n04254680'
p22
sI22
S'n04118538'
p23
sI23
S'n04254680'
p24
sI24
S'n04540053'
p25
sI25
S'n04254680'
p26
sI26
S'n04254680'
p27
sI27
S'n03379051'
p28
sI28
S'n04118538'
p29
sI29
S'n04118538'
p30
sI30
S'n04254680'
p31
sI31
S'n04509417'
p32
sI32
S'n03379051'
p33
sI33
S'n04254680'
p34
sI34
S'n04540053'
p35
sI35
S'n04118538'
p36
sI36
S'n04254680'
p37
sI37
S'n04254680'
p38
sI38
S'n04118538'
p39
sI39
S'n02802426'
p40
sI40
S'n02802426'
p41
sI41
S'n04118538'
p42
sI42
S'n02802426'
p43
sI43
S'n04254680'
p44
sI44
S'n04254680'
p45
sI45
S'n04118538'
p46
sI46
S'n04118538'
p47
sI47
S'n04540053'
p48
sI48
S'n02802426'
p49
sI49
S'n04254680'
p50
sI50
S'n04118538'
p51
sI51
S'n04254680'
p52
sI52
S'n04118538'
p53
sI53
S'n04254680'
p54
sI54
S'n04254680'
p55
sI55
S'n04540053'
p56
sI56
S'n04254680'
p57
sI57
S'n04254680'
p58
sI58
S'n03379051'
p59
sI59
S'n04254680'
p60
sI60
S'n04254680'
p61
sI61
S'n04118538'
p62
sI62
S'n04019541'
p63
sI63
S'n02802426'
p64
sI64
S'n02802426'
p65
sI65
S'n04540053'
p66
sI66
S'n09835506'
p67
sI67
S'n04254680'
p68
sI68
S'n04254680'
p69
sI69
S'n04118538'
p70
sI70
S'n04540053'
p71
sI71
S'n03379051'
p72
sI72
S'n04254680'
p73
sI73
S'n04540053'
p74
sI74
S'n04254680'
p75
sI75
S'n03388043'
p76
sI76
S'n04540053'
p77
sI77
S'n04118538'
p78
sI78
S'n04118538'
p79
sI79
S'n04540053'
p80
sI80
S'n04254680'
p81
sI81
S'n04118538'
p82
sI82
S'n04254680'
p83
sI83
S'n04118538'
p84
sI84
S'n04118538'
p85
sI85
S'n04118538'
p86
sI86
S'n04254680'
p87
sI87
S'n04254680'
p88
sI88
S'n04118538'
p89
sI89
S'n04254680'
p90
sI90
S'n04118538'
p91
sI91
S'n04254680'
p92
sI92
S'n04254680'
p93
sI93
S'n04118538'
p94
sI94
S'n04540053'
p95
sI95
S'n04254680'
p96
sI96
S'n04118538'
p97
sI97
S'n04254680'
p98
sI98
S'n04254680'
p99
sI99
S'n04118538'
p100
sI100
S'n04254680'
p101
sI101
S'n02802426'
p102
sI102
S'n03379051'
p103
sI103
S'n04254680'
p104
sI104
S'n04254680'
p105
sI105
S'n04254680'
p106
sI106
S'n02802426'
p107
sI107
S'n04118538'
p108
sI108
S'n02916936'
p109
sI109
S'n04254680'
p110
sI110
S'n04254680'
p111
sI111
S'n02090721'
p112
sI112
S'n02113978'
p113
sI113
S'n02087046'
p114
sI114
S'n02092339'
p115
sI115
S'n02100735'
p116
sI116
S'n02114855'
p117
sI117
S'n02091635'
p118
sI118
S'n02099712'
p119
sI119
S'n02100735'
p120
sI120
S'n02100236'
p121
sI121
S'n02108000'
p122
sI122
S'n02100583'
p123
sI123
S'n02089867'
p124
sI124
S'n02088238'
p125
sI125
S'n02091134'
p126
sI126
S'n02100583'
p127
sI127
S'n02088094'
p128
sI128
S'n02100735'
p129
sI129
S'n02091635'
p130
sI130
S'n02092339'
p131
sI131
S'n02099429'
p132
sI132
S'n02100236'
p133
sI133
S'n02099267'
p134
sI134
S'n04067472'
p135
sI135
S'n03868242'
p136
sI136
S'n02099712'
p137
sI137
S'n02100735'
p138
sI138
S'n02099712'
p139
sI139
S'n02092339'
p140
sI140
S'n02105162'
p141
sI141
S'n02093428'
p142
sI142
S'n02105162'
p143
sI143
S'n02089973'
p144
sI144
S'n02092339'
p145
sI145
S'n02089867'
p146
sI146
S'n02100735'
p147
sI147
S'n02091134'
p148
sI148
S'n02100583'
p149
sI149
S'n02089867'
p150
sI150
S'n02099267'
p151
sI151
S'n02104029'
p152
sI152
S'n02100236'
p153
sI153
S'n02099849'
p154
sI154
S'n02100236'
p155
sI155
S'n02092339'
p156
sI156
S'n02100735'
p157
sI157
S'n02101556'
p158
sI158
S'n02099267'
p159
sI159
S'n02100236'
p160
sI160
S'n02100236'
p161
sI161
S'n02100735'
p162
sI162
S'n02099712'
p163
sI163
S'n02099712'
p164
sI164
S'n02120505'
p165
sI165
S'n02088364'
p166
sI166
S'n02091831'
p167
sI167
S'n02100735'
p168
sI168
S'n02106662'
p169
sI169
S'n02100583'
p170
sI170
S'n02109047'
p171
sI171
S'n02106550'
p172
sI172
S'n02100236'
p173
sI173
S'n02099712'
p174
sI174
S'n02089867'
p175
sI175
S'n03124043'
p176
sI176
S'n02099601'
p177
sI177
S'n02089973'
p178
sI178
S'n02101388'
p179
sI179
S'n02099849'
p180
sI180
S'n02100583'
p181
sI181
S'n02099267'
p182
sI182
S'n02100236'
p183
sI183
S'n02100236'
p184
sI184
S'n02415577'
p185
sI185
S'n02089867'
p186
sI186
S'n02099712'
p187
sI187
S'n02093991'
p188
sI188
S'n02099849'
p189
sI189
S'n02398521'
p190
sI190
S'n02111129'
p191
sI191
S'n02100236'
p192
sI192
S'n02089973'
p193
sI193
S'n02089973'
p194
sI194
S'n02091244'
p195
sI195
S'n02100236'
p196
sI196
S'n02100236'
p197
sI197
S'n02100236'
p198
sI198
S'n02107312'
p199
sI199
S'n02099601'
p200
sI200
S'n02099267'
p201
sI201
S'n02100735'
p202
sI202
S'n02100236'
p203
sI203
S'n02087394'
p204
sI204
S'n02088632'
p205
sI205
S'n02408429'
p206
sI206
S'n02100236'
p207
sI207
S'n01514859'
p208
sI208
S'n02100236'
p209
sI209
S'n07745940'
p210
sI210
S'n07747607'
p211
sI211
S'n07768694'
p212
sI212
S'n07745940'
p213
sI213
S'n07747607'
p214
sI214
S'n07745940'
p215
sI215
S'n07836838'
p216
sI216
S'n07745940'
p217
sI217
S'n07720875'
p218
sI218
S'n07747607'
p219
sI219
S'n12267677'
p220
sI220
S'n07747607'
p221
sI221
S'n07768694'
p222
sI222
S'n07753113'
p223
sI223
S'n07768694'
p224
sI224
S'n07742313'
p225
sI225
S'n12620546'
p226
sI226
S'n03942813'
p227
sI227
S'n12620546'
p228
sI228
S'n07742313'
p229
sI229
S'n07717410'
p230
sI230
S'n07749582'
p231
sI231
S'n07753275'
p232
sI232
S'n07742313'
p233
sI233
S'n07753275'
p234
sI234
S'n07753275'
p235
sI235
S'n07760859'
p236
sI236
S'n04204238'
p237
sI237
S'n07742313'
p238
sI238
S'n07716358'
p239
sI239
S'n07715103'
p240
sI240
S'n07768694'
p241
sI241
S'n07768694'
p242
sI242
S'n03314780'
p243
sI243
S'n03461385'
p244
sI244
S'n07716906'
p245
sI245
S'n07745940'
p246
sI246
S'n12144580'
p247
sI247
S'n07718472'
p248
sI248
S'n03942813'
p249
sI249
S'n07749582'
p250
sI250
S'n07718472'
p251
sI251
S'n07747607'
p252
sI252
S'n07716906'
p253
sI253
S'n03134739'
p254
sI254
S'n03476684'
p255
sI255
S'n07716906'
p256
sI256
S'n07749582'
p257
sI257
S'n07760859'
p258
sI258
S'n03134739'
p259
sI259
S'n07747607'
p260
sI260
S'n07749582'
p261
sI261
S'n07614500'
p262
sI262
S'n03063689'
p263
sI263
S'n12768682'
p264
sI264
S'n07747607'
p265
sI265
S'n07749582'
p266
sI266
S'n07720875'
p267
sI267
S'n07749582'
p268
sI268
S'n07768694'
p269
sI269
S'n07742313'
p270
sI270
S'n03482405'
p271
sI271
S'n07747607'
p272
sI272
S'n07749582'
p273
sI273
S'n07753113'
p274
sI274
S'n07747607'
p275
sI275
S'n07716906'
p276
sI276
S'n07768694'
p277
sI277
S'n07768694'
p278
sI278
S'n07768694'
p279
sI279
S'n07747607'
p280
sI280
S'n07749582'
p281
sI281
S'n07749582'
p282
sI282
S'n07747607'
p283
sI283
S'n07747607'
p284
sI284
S'n07718472'
p285
sI285
S'n07613480'
p286
sI286
S'n12267677'
p287
sI287
S'n03127925'
p288
sI288
S'n04599235'
p289
sI289
S'n07742313'
p290
sI290
S'n07742313'
p291
sI291
S'n07745940'
p292
sI292
S'n07768694'
p293
sI293
S'n07747607'
p294
sI294
S'n07760859'
p295
sI295
S'n03461385'
p296
sI296
S'n07749582'
p297
sI297
S'n07742313'
p298
sI298
S'n12620546'
p299
sI299
S'n07753113'
p300
sI300
S'n07753113'
p301
sI301
S'n13133613'
p302
sI302
S'n07760859'
p303
sI303
S'n07747607'
p304
sI304
S'n07768694'
p305
sI305
S'n12267677'
p306
sI306
S'n13052670'
p307
sI307
S'n07742313'
p308
sI308
S'n03461385'
p309
sI309
S'n07742313'
p310
sI310
S'n09256479'
p311
sI311
S'n07747607'
p312
sI312
S'n02666196'
p313
sI313
S'n02927161'
p314
sI314
S'n07745940'
p315
sI315
S'n07745940'
p316
sI316
S'n07717556'
p317
sI317
S'n09246464'
p318
sI318
S'n09246464'
p319
sI319
S'n04326547'
p320
sI320
S'n09428293'
p321
sI321
S'n09399592'
p322
sI322
S'n03743016'
p323
sI323
S'n09193705'
p324
sI324
S'n04525038'
p325
sI325
S'n01744401'
p326
sI326
S'n13052670'
p327
sI327
S'n09332890'
p328
sI328
S'n09246464'
p329
sI329
S'n09246464'
p330
sI330
S'n02415577'
p331
sI331
S'n09246464'
p332
sI332
S'n09246464'
p333
sI333
S'n09246464'
p334
sI334
S'n02074367'
p335
sI335
S'n04311004'
p336
sI336
S'n09246464'
p337
sI337
S'n13052670'
p338
sI338
S'n03404251'
p339
sI339
S'n02504458'
p340
sI340
S'n09246464'
p341
sI341
S'n09193705'
p342
sI342
S'n04326547'
p343
sI343
S'n09428293'
p344
sI344
S'n03594945'
p345
sI345
S'n09246464'
p346
sI346
S'n09399592'
p347
sI347
S'n09246464'
p348
sI348
S'n09428293'
p349
sI349
S'n09246464'
p350
sI350
S'n03743016'
p351
sI351
S'n09399592'
p352
sI352
S'n13052670'
p353
sI353
S'n09472597'
p354
sI354
S'n01685808'
p355
sI355
S'n09472597'
p356
sI356
S'n09468604'
p357
sI357
S'n09246464'
p358
sI358
S'n09246464'
p359
sI359
S'n03781244'
p360
sI360
S'n09246464'
p361
sI361
S'n09193705'
p362
sI362
S'n09399592'
p363
sI363
S'n09193705'
p364
sI364
S'n09246464'
p365
sI365
S'n09399592'
p366
sI366
S'n09193705'
p367
sI367
S'n04326547'
p368
sI368
S'n02437312'
p369
sI369
S'n03042490'
p370
sI370
S'n09399592'
p371
sI371
S'n09246464'
p372
sI372
S'n09472597'
p373
sI373
S'n09193705'
p374
sI374
S'n03781244'
p375
sI375
S'n09246464'
p376
sI376
S'n03594945'
p377
sI377
S'n09193705'
p378
sI378
S'n04326547'
p379
sI379
S'n09246464'
p380
sI380
S'n02133161'
p381
sI381
S'n09468604'
p382
sI382
S'n09246464'
p383
sI383
S'n09246464'
p384
sI384
S'n02233338'
p385
sI385
S'n03042490'
p386
sI386
S'n09421951'
p387
sI387
S'n04523525'
p388
sI388
S'n01756291'
p389
sI389
S'n09246464'
p390
sI390
S'n03042490'
p391
sI391
S'n04326547'
p392
sI392
S'n09193705'
p393
sI393
S'n09246464'
p394
sI394
S'n09193705'
p395
sI395
S'n01768244'
p396
sI396
S'n09472597'
p397
sI397
S'n09468604'
p398
sI398
S'n02980441'
p399
sI399
S'n09472597'
p400
sI400
S'n03388043'
p401
sI401
S'n04435653'
p402
sI402
S'n09472597'
p403
sI403
S'n09246464'
p404
sI404
S'n09468604'
p405
sI405
S'n09246464'
p406
sI406
S'n09246464'
p407
sI407
S'n09399592'
p408
sI408
S'n09428293'
p409
sI409
S'n03743016'
p410
sI410
S'n09246464'
p411
sI411
S'n09246464'
p412
sI412
S'n09246464'
p413
sI413
S'n09246464'
p414
sI414
S'n09468604'
p415
sI415
S'n09193705'
p416
sI416
S'n09246464'
p417
sI417
S'n01756291'
p418
sI418
S'n09468604'
p419
sI419
S'n04326547'
p420
sI420
S'n09399592'
p421
sI421
S'n01667114'
p422
sI422
S'n03743016'
p423
sI423
S'n09288635'
p424
sI424
S'n04435653'
p425
sI425
S'n02280649'
p426
sI426
S'n02865351'
p427
sI427
S'n02206856'
p428
sI428
S'n07768694'
p429
sI429
S'n11939491'
p430
sI430
S'n11939491'
p431
sI431
S'n07734744'
p432
sI432
S'n12057211'
p433
sI433
S'n11939491'
p434
sI434
S'n12267677'
p435
sI435
S'n02219486'
p436
sI436
S'n12768682'
p437
sI437
S'n02206856'
p438
sI438
S'n02281406'
p439
sI439
S'n11939491'
p440
sI440
S'n11879895'
p441
sI441
S'n03991062'
p442
sI442
S'n11939491'
p443
sI443
S'n07730033'
p444
sI444
S'n02206856'
p445
sI445
S'n02280649'
p446
sI446
S'n11939491'
p447
sI447
S'n03000134'
p448
sI448
S'n11939491'
p449
sI449
S'n12057211'
p450
sI450
S'n02206856'
p451
sI451
S'n11879895'
p452
sI452
S'n11939491'
p453
sI453
S'n11939491'
p454
sI454
S'n11939491'
p455
sI455
S'n09332890'
p456
sI456
S'n11939491'
p457
sI457
S'n12057211'
p458
sI458
S'n12057211'
p459
sI459
S'n11939491'
p460
sI460
S'n12985857'
p461
sI461
S'n12620546'
p462
sI462
S'n13133613'
p463
sI463
S'n02280649'
p464
sI464
S'n11939491'
p465
sI465
S'n02280649'
p466
sI466
S'n11939491'
p467
sI467
S'n11939491'
p468
sI468
S'n02280649'
p469
sI469
S'n02206856'
p470
sI470
S'n01537544'
p471
sI471
S'n02206856'
p472
sI472
S'n07730033'
p473
sI473
S'n11939491'
p474
sI474
S'n11879895'
p475
sI475
S'n02268853'
p476
sI476
S'n02264363'
p477
sI477
S'n02280649'
p478
sI478
S'n13044778'
p479
sI479
S'n11939491'
p480
sI480
S'n02206856'
p481
sI481
S'n02280649'
p482
sI482
S'n02206856'
p483
sI483
S'n09246464'
p484
sI484
S'n02281406'
p485
sI485
S'n03991062'
p486
sI486
S'n07730033'
p487
sI487
S'n02280649'
p488
sI488
S'n07730033'
p489
sI489
S'n07718747'
p490
sI490
S'n02206856'
p491
sI491
S'n07749582'
p492
sI492
S'n03944341'
p493
sI493
S'n09472597'
p494
sI494
S'n11939491'
p495
sI495
S'n12985857'
p496
sI496
S'n03000134'
p497
sI497
S'n02206856'
p498
sI498
S'n11939491'
p499
sI499
S'n12620546'
p500
sI500
S'n02280649'
p501
sI501
S'n11939491'
p502
sI502
S'n07730033'
p503
sI503
S'n02280649'
p504
sI504
S'n02281787'
p505
sI505
S'n11939491'
p506
sI506
S'n02445715'
p507
sI507
S'n11939491'
p508
sI508
S'n07730033'
p509
sI509
S'n12985857'
p510
sI510
S'n07730033'
p511
sI511
S'n02206856'
p512
sI512
S'n02281406'
p513
sI513
S'n03944341'
p514
sI514
S'n01631663'
p515
sI515
S'n02280649'
p516
sI516
S'n07714571'
p517
sI517
S'n13133613'
p518
sI518
S'n02236044'
p519
sI519
S'n11939491'
p520
sI520
S'n02206856'
p521
sI521
S'n02206856'
p522
sI522
S'n02169497'
p523
sI523
S'n11939491'
p524
sI524
S'n03991062'
p525
sI525
S'n07730033'
p526
sI526
S'n03991062'
p527
sI527
S'n02281406'
p528
sI528
S'n03944341'
p529
sI529
S'n01833805'
p530
sI530
S'n12768682'
p531
sI531
S'n11939491'
p532
sI532
S'n11939491'
p533
sI533
S'n11939491'
p534
sI534
S'n11939491'
p535
s.